; Function Attrs: mustprogress uwtable
define noundef double @_ZN7IncVPSC12mostViolatedERSt6vectorIP10ConstraintSaIS2_EERS2_(ptr nocapture noundef nonnull readnone align 8 dereferenceable(112) %0, ptr noundef nonnull align 8 dereferenceable(24) %1, ptr nocapture noundef nonnull writeonly align 8 dereferenceable(8) %2) local_unnamed_addr #3 align 2 personality ptr @__gxx_personality_v0 {
  %4 = getelementptr inbounds i8, ptr %1, i64 8
  %5 = load ptr, ptr %4, align 8
  %6 = load ptr, ptr %1, align 8
  %.not23 = icmp eq ptr %6, %5
  br i1 %.not23, label %_ZNSt6vectorIP10ConstraintSaIS1_EE6resizeEm.exit, label %.lr.ph

.lr.ph:                                           ; preds = %3, %31
  %.026 = phi double [ %.1, %31 ], [ 0x7FEFFFFFFFFFFFFF, %3 ]
  %.sroa.0.025 = phi ptr [ %32, %31 ], [ %6, %3 ]
  %.sroa.018.024 = phi ptr [ %.sroa.018.1, %31 ], [ %5, %3 ]
  %7 = load ptr, ptr %.sroa.0.025, align 8
  %8 = getelementptr inbounds i8, ptr %7, i64 8
  %9 = load ptr, ptr %8, align 8
  %10 = getelementptr inbounds i8, ptr %9, i64 32
  %11 = load ptr, ptr %10, align 8
  %12 = getelementptr inbounds i8, ptr %11, i64 24
  %13 = load double, ptr %12, align 8
  %14 = getelementptr inbounds i8, ptr %9, i64 24
  %15 = load double, ptr %14, align 8
  %16 = fadd double %13, %15
  %17 = getelementptr inbounds i8, ptr %7, i64 16
  %18 = load double, ptr %17, align 8
  %19 = fsub double %16, %18
  %20 = load ptr, ptr %7, align 8
  %21 = getelementptr inbounds i8, ptr %20, i64 32
  %22 = load ptr, ptr %21, align 8
  %23 = getelementptr inbounds i8, ptr %22, i64 24
  %24 = load double, ptr %23, align 8
  %25 = getelementptr inbounds i8, ptr %20, i64 24
  %26 = load double, ptr %25, align 8
  %27 = fadd double %24, %26
  %28 = fsub double %19, %27
  %29 = fcmp olt double %28, %.026
  br i1 %29, label %30, label %31

30:                                               ; preds = %.lr.ph
  store ptr %7, ptr %2, align 8
  br label %31

31:                                               ; preds = %.lr.ph, %30
  %.sroa.018.1 = phi ptr [ %.sroa.0.025, %30 ], [ %.sroa.018.024, %.lr.ph ]
  %.1 = phi double [ %28, %30 ], [ %.026, %.lr.ph ]
  %32 = getelementptr inbounds i8, ptr %.sroa.0.025, i64 8
  %.not = icmp eq ptr %32, %5
  br i1 %.not, label %._crit_edge, label %.lr.ph, !llvm.loop !10

._crit_edge:                                      ; preds = %31
  %33 = icmp ne ptr %.sroa.018.1, %5
  %34 = fcmp olt double %.1, 0xBE7AD7F29ABCAF48
  %or.cond = and i1 %33, %34
  br i1 %or.cond, label %35, label %_ZNSt6vectorIP10ConstraintSaIS1_EE6resizeEm.exit

35:                                               ; preds = %._crit_edge
  %36 = load ptr, ptr %4, align 8
  %37 = load ptr, ptr %1, align 8
  %38 = ptrtoint ptr %36 to i64
  %39 = ptrtoint ptr %37 to i64
  %40 = sub i64 %38, %39
  %41 = getelementptr i8, ptr %37, i64 %40
  %42 = getelementptr i8, ptr %41, i64 -8
  %43 = load ptr, ptr %42, align 8
  store ptr %43, ptr %.sroa.018.1, align 8
  %44 = load ptr, ptr %4, align 8
  %45 = load ptr, ptr %1, align 8
  %46 = icmp eq ptr %44, %45
  br i1 %46, label %47, label %48

47:                                               ; preds = %35
  tail call void @_ZNSt6vectorIP10ConstraintSaIS1_EE17_M_default_appendEm(ptr noundef nonnull align 8 dereferenceable(24) %1, i64 noundef -1)
  br label %_ZNSt6vectorIP10ConstraintSaIS1_EE6resizeEm.exit

48:                                               ; preds = %35
  %49 = ptrtoint ptr %44 to i64
  %50 = ptrtoint ptr %45 to i64
  %51 = sub i64 %49, %50
  %52 = getelementptr i8, ptr %45, i64 %51
  %53 = getelementptr i8, ptr %52, i64 -8
  %.not.i.i = icmp eq ptr %44, %53
  br i1 %.not.i.i, label %_ZNSt6vectorIP10ConstraintSaIS1_EE6resizeEm.exit, label %54

54:                                               ; preds = %48
  store ptr %53, ptr %4, align 8
  br label %_ZNSt6vectorIP10ConstraintSaIS1_EE6resizeEm.exit

_ZNSt6vectorIP10ConstraintSaIS1_EE6resizeEm.exit: ; preds = %3, %54, %48, %47, %._crit_edge
  %.0.lcssa31 = phi double [ %.1, %54 ], [ %.1, %48 ], [ %.1, %47 ], [ %.1, %._crit_edge ], [ 0x7FEFFFFFFFFFFFFF, %3 ]
  ret double %.0.lcssa31
}